target datalayout = "e-m:e-p270:32:32-p271:32:32-p272:64:64-i64:64-i128:128-f80:128-n8:16:32:64-S128"
target triple = "x86_64-pc-linux-gnu"

%struct._packet_info = type { ptr, ptr, i32, i32, %struct.nstime_t, %struct.nstime_t, %struct.nstime_t, i8, ptr, ptr, ptr, ptr, %struct._address, %struct._address, %struct._address, %struct._address, %struct._address, %struct._address, i32, ptr, i8, [3 x i8], %struct.anon, i32, i32, i32, i32, ptr, i8, ptr, ptr, i16, i16, i32, i32, i16, i32, i32, ptr, ptr, ptr, i8, i8, i16, i16, i16, i32, i16, i16, ptr, ptr, ptr, ptr, ptr, i32, i32 }
%struct.nstime_t = type { i64, i32 }
%struct._address = type { i32, i32, ptr, ptr }
%struct.anon = type { i8, [3 x i8] }
%struct._ndmp_conv_data_t = type { i8, ptr, ptr, ptr, ptr, ptr, ptr }
%struct._ndmp_task_data_t = type { i32, i32, %struct.nstime_t, ptr }
%struct._itl_nexus_t = type { i8, ptr }

@hf_ndmp_error = internal global i32 0, align 4
@hf_ndmp_execute_cdb_datain_len = internal global i32 0, align 4
@hf_ndmp_execute_cdb_status = internal global i32 0, align 4
@hf_ndmp_execute_cdb_dataout_len = internal global i32 0, align 4
@hf_ndmp_execute_cdb_sns_len = internal global i32 0, align 4
@ett_ndmp_execute_cdb_sns = internal global i32 0, align 4
@top_tree = internal global ptr null, align 8
@ndmp_conv_data = internal global ptr null, align 8
@.str.749 = private unnamed_addr constant [16 x i8] c" NDMP Error:%s \00", align 1
@.str.750 = private unnamed_addr constant [28 x i8] c"Unknown NDMP error code %#x\00", align 1
@.str.754 = private unnamed_addr constant [8 x i8] c"Data in\00", align 1
@.str.755 = private unnamed_addr constant [11 x i8] c"Sense data\00", align 1

; Function Attrs: null_pointer_is_valid sspstrong uwtable
define internal i32 @dissect_execute_cdb_sns(ptr noundef %0, i32 noundef %1, ptr noundef %2, ptr noundef %3) #0 {
  %5 = alloca ptr, align 8
  %6 = alloca i32, align 4
  %7 = alloca ptr, align 8
  %8 = alloca ptr, align 8
  %9 = alloca ptr, align 8
  %10 = alloca i32, align 4
  %11 = alloca i32, align 4
  store ptr %0, ptr %5, align 8
  store i32 %1, ptr %6, align 4
  store ptr %2, ptr %7, align 8
  store ptr %3, ptr %8, align 8
  call void @llvm.lifetime.start.p0(i64 8, ptr %9) #9
  call void @llvm.lifetime.start.p0(i64 4, ptr %10) #9
  call void @llvm.lifetime.start.p0(i64 4, ptr %11) #9
  %12 = load ptr, ptr %5, align 8
  %13 = load i32, ptr %6, align 4
  %14 = call i32 @tvb_get_ntohl(ptr noundef %12, i32 noundef %13)
  store i32 %14, ptr %10, align 4
  %15 = load i32, ptr %10, align 4
  %16 = call i32 @rpc_roundup(i32 noundef %15)
  store i32 %16, ptr %11, align 4
  %17 = load ptr, ptr %8, align 8
  %18 = load ptr, ptr %5, align 8
  %19 = load i32, ptr %6, align 4
  %20 = load i32, ptr %11, align 4
  %21 = add i32 4, %20
  %22 = load i32, ptr @ett_ndmp_execute_cdb_sns, align 4
  %23 = call ptr @proto_tree_add_subtree(ptr noundef %17, ptr noundef %18, i32 noundef %19, i32 noundef %21, i32 noundef %22, ptr noundef null, ptr noundef @.str.755)
  store ptr %23, ptr %9, align 8
  %24 = load ptr, ptr %9, align 8
  %25 = load i32, ptr @hf_ndmp_execute_cdb_sns_len, align 4
  %26 = load ptr, ptr %5, align 8
  %27 = load i32, ptr %6, align 4
  %28 = load i32, ptr %10, align 4
  %29 = call ptr @proto_tree_add_uint(ptr noundef %24, i32 noundef %25, ptr noundef %26, i32 noundef %27, i32 noundef 4, i32 noundef %28)
  %30 = load i32, ptr %6, align 4
  %31 = add i32 %30, 4
  store i32 %31, ptr %6, align 4
  %32 = load i32, ptr %10, align 4
  %33 = icmp ne i32 %32, 0
  br i1 %33, label %34, label %63

34:                                               ; preds = %4
  %35 = load ptr, ptr @ndmp_conv_data, align 8
  %36 = getelementptr inbounds nuw %struct._ndmp_conv_data_t, ptr %35, i32 0, i32 5
  %37 = load ptr, ptr %36, align 8
  %38 = icmp ne ptr %37, null
  br i1 %38, label %39, label %59

39:                                               ; preds = %34
  %40 = load ptr, ptr @ndmp_conv_data, align 8
  %41 = getelementptr inbounds nuw %struct._ndmp_conv_data_t, ptr %40, i32 0, i32 5
  %42 = load ptr, ptr %41, align 8
  %43 = getelementptr inbounds nuw %struct._ndmp_task_data_t, ptr %42, i32 0, i32 3
  %44 = load ptr, ptr %43, align 8
  %45 = icmp ne ptr %44, null
  br i1 %45, label %46, label %59

46:                                               ; preds = %39
  %47 = load ptr, ptr %5, align 8
  %48 = load ptr, ptr %7, align 8
  %49 = load ptr, ptr @top_tree, align 8
  %50 = load i32, ptr %6, align 4
  %51 = load i32, ptr %10, align 4
  %52 = load ptr, ptr @ndmp_conv_data, align 8
  %53 = getelementptr inbounds nuw %struct._ndmp_conv_data_t, ptr %52, i32 0, i32 5
  %54 = load ptr, ptr %53, align 8
  %55 = getelementptr inbounds nuw %struct._ndmp_task_data_t, ptr %54, i32 0, i32 3
  %56 = load ptr, ptr %55, align 8
  %57 = load ptr, ptr %7, align 8
  %58 = call ptr @get_itl_nexus(ptr noundef %57, i1 noundef zeroext false)
  call void @dissect_scsi_snsinfo(ptr noundef %47, ptr noundef %48, ptr noundef %49, i32 noundef %50, i32 noundef %51, ptr noundef %56, ptr noundef %58)
  br label %59

59:                                               ; preds = %46, %39, %34
  %60 = load i32, ptr %11, align 4
  %61 = load i32, ptr %6, align 4
  %62 = add i32 %61, %60
  store i32 %62, ptr %6, align 4
  br label %63

63:                                               ; preds = %59, %4
  %64 = load i32, ptr %6, align 4
  call void @llvm.lifetime.end.p0(i64 4, ptr %11) #9
  call void @llvm.lifetime.end.p0(i64 4, ptr %10) #9
  call void @llvm.lifetime.end.p0(i64 8, ptr %9) #9
  ret i32 %64
}

; Function Attrs: null_pointer_is_valid sspstrong uwtable
define internal ptr @get_itl_nexus(ptr noundef %0, i1 noundef zeroext %1) #0 {
  %3 = alloca ptr, align 8
  %4 = alloca i8, align 1
  %5 = alloca ptr, align 8
  store ptr %0, ptr %3, align 8
  %6 = zext i1 %1 to i8
  store i8 %6, ptr %4, align 1
  call void @llvm.lifetime.start.p0(i64 8, ptr %5) #9
  %7 = load i8, ptr %4, align 1, !range !6, !noundef !7
  %8 = trunc i8 %7 to i1
  br i1 %8, label %18, label %9

9:                                                ; preds = %2
  %10 = load ptr, ptr @ndmp_conv_data, align 8
  %11 = getelementptr inbounds nuw %struct._ndmp_conv_data_t, ptr %10, i32 0, i32 2
  %12 = load ptr, ptr %11, align 8
  %13 = load ptr, ptr %3, align 8
  %14 = getelementptr inbounds nuw %struct._packet_info, ptr %13, i32 0, i32 3
  %15 = load i32, ptr %14, align 4
  %16 = call ptr @wmem_tree_lookup32_le(ptr noundef %12, i32 noundef %15)
  store ptr %16, ptr %5, align 8
  %17 = icmp ne ptr %16, null
  br i1 %17, label %35, label %18

18:                                               ; preds = %9, %2
  %19 = call ptr @wmem_file_scope()
  %20 = call noalias ptr @wmem_alloc(ptr noundef %19, i64 noundef 16) #10
  store ptr %20, ptr %5, align 8
  %21 = load ptr, ptr %5, align 8
  %22 = getelementptr inbounds nuw %struct._itl_nexus_t, ptr %21, i32 0, i32 0
  store i8 -1, ptr %22, align 8
  %23 = load ptr, ptr @ndmp_conv_data, align 8
  %24 = getelementptr inbounds nuw %struct._ndmp_conv_data_t, ptr %23, i32 0, i32 6
  %25 = load ptr, ptr %24, align 8
  %26 = load ptr, ptr %5, align 8
  %27 = getelementptr inbounds nuw %struct._itl_nexus_t, ptr %26, i32 0, i32 1
  store ptr %25, ptr %27, align 8
  %28 = load ptr, ptr @ndmp_conv_data, align 8
  %29 = getelementptr inbounds nuw %struct._ndmp_conv_data_t, ptr %28, i32 0, i32 2
  %30 = load ptr, ptr %29, align 8
  %31 = load ptr, ptr %3, align 8
  %32 = getelementptr inbounds nuw %struct._packet_info, ptr %31, i32 0, i32 3
  %33 = load i32, ptr %32, align 4
  %34 = load ptr, ptr %5, align 8
  call void @wmem_tree_insert32(ptr noundef %30, i32 noundef %33, ptr noundef %34)
  br label %35

35:                                               ; preds = %18, %9
  %36 = load ptr, ptr %5, align 8
  call void @llvm.lifetime.end.p0(i64 8, ptr %5) #9
  ret ptr %36
}

; Function Attrs: null_pointer_is_valid sspstrong uwtable
define internal i32 @dissect_error(ptr noundef %0, i32 noundef %1, ptr noundef %2, ptr noundef %3, i32 noundef %4) #0 {
  %6 = alloca ptr, align 8
  %7 = alloca i32, align 4
  %8 = alloca ptr, align 8
  %9 = alloca ptr, align 8
  %10 = alloca i32, align 4
  %11 = alloca i32, align 4
  store ptr %0, ptr %6, align 8
  store i32 %1, ptr %7, align 4
  store ptr %2, ptr %8, align 8
  store ptr %3, ptr %9, align 8
  store i32 %4, ptr %10, align 4
  call void @llvm.lifetime.start.p0(i64 4, ptr %11) #9
  %12 = load ptr, ptr %6, align 8
  %13 = load i32, ptr %7, align 4
  %14 = call i32 @tvb_get_ntohl(ptr noundef %12, i32 noundef %13)
  store i32 %14, ptr %11, align 4
  %15 = load ptr, ptr %9, align 8
  %16 = load i32, ptr @hf_ndmp_error, align 4
  %17 = load ptr, ptr %6, align 8
  %18 = load i32, ptr %7, align 4
  %19 = call ptr @proto_tree_add_item(ptr noundef %15, i32 noundef %16, ptr noundef %17, i32 noundef %18, i32 noundef 4, i32 noundef 0)
  %20 = load i32, ptr %11, align 4
  %21 = icmp ne i32 %20, 0
  br i1 %21, label %22, label %28

22:                                               ; preds = %5
  %23 = load ptr, ptr %8, align 8
  %24 = getelementptr inbounds nuw %struct._packet_info, ptr %23, i32 0, i32 1
  %25 = load ptr, ptr %24, align 8
  %26 = load i32, ptr %11, align 4
  %27 = call ptr @val_to_str(i32 noundef %26, ptr noundef @error_vals, ptr noundef @.str.750)
  call void (ptr, i32, ptr, ...) @col_append_fstr(ptr noundef %25, i32 noundef 25, ptr noundef @.str.749, ptr noundef %27)
  br label %28

28:                                               ; preds = %22, %5
  %29 = load i32, ptr %7, align 4
  %30 = add i32 %29, 4
  store i32 %30, ptr %7, align 4
  %31 = load i32, ptr %7, align 4
  call void @llvm.lifetime.end.p0(i64 4, ptr %11) #9
  ret i32 %31
}

; Function Attrs: null_pointer_is_valid sspstrong uwtable
define internal i32 @dissect_execute_cdb_reply(ptr noundef %0, i32 noundef %1, ptr noundef %2, ptr noundef %3, i32 noundef %4) #0 {
  %6 = alloca ptr, align 8
  %7 = alloca i32, align 4
  %8 = alloca ptr, align 8
  %9 = alloca ptr, align 8
  %10 = alloca i32, align 4
  %11 = alloca i32, align 4
  store ptr %0, ptr %6, align 8
  store i32 %1, ptr %7, align 4
  store ptr %2, ptr %8, align 8
  store ptr %3, ptr %9, align 8
  store i32 %4, ptr %10, align 4
  call void @llvm.lifetime.start.p0(i64 4, ptr %11) #9
  %12 = load ptr, ptr %6, align 8
  %13 = load i32, ptr %7, align 4
  %14 = load ptr, ptr %8, align 8
  %15 = load ptr, ptr %9, align 8
  %16 = load i32, ptr %10, align 4
  %17 = call i32 @dissect_error(ptr noundef %12, i32 noundef %13, ptr noundef %14, ptr noundef %15, i32 noundef %16)
  store i32 %17, ptr %7, align 4
  %18 = load ptr, ptr %9, align 8
  %19 = load i32, ptr @hf_ndmp_execute_cdb_status, align 4
  %20 = load ptr, ptr %6, align 8
  %21 = load i32, ptr %7, align 4
  %22 = call ptr @proto_tree_add_item_ret_uint(ptr noundef %18, i32 noundef %19, ptr noundef %20, i32 noundef %21, i32 noundef 4, i32 noundef 0, ptr noundef %11)
  %23 = load ptr, ptr @ndmp_conv_data, align 8
  %24 = getelementptr inbounds nuw %struct._ndmp_conv_data_t, ptr %23, i32 0, i32 5
  %25 = load ptr, ptr %24, align 8
  %26 = icmp ne ptr %25, null
  br i1 %26, label %27, label %47

27:                                               ; preds = %5
  %28 = load ptr, ptr @ndmp_conv_data, align 8
  %29 = getelementptr inbounds nuw %struct._ndmp_conv_data_t, ptr %28, i32 0, i32 5
  %30 = load ptr, ptr %29, align 8
  %31 = getelementptr inbounds nuw %struct._ndmp_task_data_t, ptr %30, i32 0, i32 3
  %32 = load ptr, ptr %31, align 8
  %33 = icmp ne ptr %32, null
  br i1 %33, label %34, label %47

34:                                               ; preds = %27
  %35 = load ptr, ptr %6, align 8
  %36 = load ptr, ptr %8, align 8
  %37 = load ptr, ptr @top_tree, align 8
  %38 = load ptr, ptr @ndmp_conv_data, align 8
  %39 = getelementptr inbounds nuw %struct._ndmp_conv_data_t, ptr %38, i32 0, i32 5
  %40 = load ptr, ptr %39, align 8
  %41 = getelementptr inbounds nuw %struct._ndmp_task_data_t, ptr %40, i32 0, i32 3
  %42 = load ptr, ptr %41, align 8
  %43 = load ptr, ptr %8, align 8
  %44 = call ptr @get_itl_nexus(ptr noundef %43, i1 noundef zeroext false)
  %45 = load i32, ptr %11, align 4
  %46 = trunc i32 %45 to i8
  call void @dissect_scsi_rsp(ptr noundef %35, ptr noundef %36, ptr noundef %37, ptr noundef %42, ptr noundef %44, i8 noundef zeroext %46)
  br label %47

47:                                               ; preds = %34, %27, %5
  %48 = load i32, ptr %7, align 4
  %49 = add i32 %48, 4
  store i32 %49, ptr %7, align 4
  %50 = load ptr, ptr %9, align 8
  %51 = load i32, ptr @hf_ndmp_execute_cdb_dataout_len, align 4
  %52 = load ptr, ptr %6, align 8
  %53 = load i32, ptr %7, align 4
  %54 = call ptr @proto_tree_add_item(ptr noundef %50, i32 noundef %51, ptr noundef %52, i32 noundef %53, i32 noundef 4, i32 noundef 0)
  %55 = load i32, ptr %7, align 4
  %56 = add i32 %55, 4
  store i32 %56, ptr %7, align 4
  %57 = load ptr, ptr %6, align 8
  %58 = load i32, ptr %7, align 4
  %59 = load ptr, ptr %8, align 8
  %60 = load ptr, ptr %9, align 8
  %61 = load i32, ptr @hf_ndmp_execute_cdb_datain_len, align 4
  %62 = call i32 @dissect_execute_cdb_payload(ptr noundef %57, i32 noundef %58, ptr noundef %59, ptr noundef %60, ptr noundef @.str.754, i32 noundef %61, i1 noundef zeroext false)
  store i32 %62, ptr %7, align 4
  %63 = load ptr, ptr %6, align 8
  %64 = load i32, ptr %7, align 4
  %65 = load ptr, ptr %8, align 8
  %66 = load ptr, ptr %9, align 8
  %67 = call i32 @dissect_execute_cdb_sns(ptr noundef %63, i32 noundef %64, ptr noundef %65, ptr noundef %66)
  store i32 %67, ptr %7, align 4
  %68 = load i32, ptr %7, align 4
  call void @llvm.lifetime.end.p0(i64 4, ptr %11) #9
  ret i32 %68
}