; Function Attrs: null_pointer_is_valid sspstrong uwtable
define internal i32 @dissect_execute_cdb_reply(ptr noundef %0, i32 noundef %1, ptr noundef %2, ptr noundef %3, i32 %4) #0 {
  %6 = alloca i32, align 4
  call void @llvm.lifetime.start.p0(i64 4, ptr nonnull %6) #10
  %7 = tail call i32 @tvb_get_ntohl(ptr noundef %0, i32 noundef %1)
  %8 = load i32, ptr @hf_ndmp_error, align 4
  %9 = tail call ptr @proto_tree_add_item(ptr noundef %3, i32 noundef %8, ptr noundef %0, i32 noundef %1, i32 noundef 4, i32 noundef 0)
  %.not.i = icmp eq i32 %7, 0
  br i1 %.not.i, label %dissect_error.exit, label %10

10:                                               ; preds = %5
  %11 = getelementptr inbounds nuw i8, ptr %2, i64 8
  %12 = load ptr, ptr %11, align 8
  %13 = tail call ptr @val_to_str(i32 noundef %7, ptr noundef nonnull @error_vals, ptr noundef nonnull @.str.750)
  tail call void (ptr, i32, ptr, ...) @col_append_fstr(ptr noundef %12, i32 noundef 25, ptr noundef nonnull @.str.749, ptr noundef %13)
  br label %dissect_error.exit

dissect_error.exit:                               ; preds = %5, %10
  %14 = add i32 %1, 4
  %15 = load i32, ptr @hf_ndmp_execute_cdb_status, align 4
  %16 = call ptr @proto_tree_add_item_ret_uint(ptr noundef %3, i32 noundef %15, ptr noundef %0, i32 noundef %14, i32 noundef 4, i32 noundef 0, ptr noundef nonnull %6)
  %17 = load ptr, ptr @ndmp_conv_data, align 8
  %18 = getelementptr inbounds nuw i8, ptr %17, i64 40
  %19 = load ptr, ptr %18, align 8
  %.not = icmp eq ptr %19, null
  br i1 %.not, label %42, label %20

20:                                               ; preds = %dissect_error.exit
  %21 = getelementptr inbounds nuw i8, ptr %19, i64 24
  %22 = load ptr, ptr %21, align 8
  %.not25 = icmp eq ptr %22, null
  br i1 %.not25, label %42, label %23

23:                                               ; preds = %20
  %24 = load ptr, ptr @top_tree, align 8
  %25 = getelementptr inbounds nuw i8, ptr %17, i64 16
  %26 = load ptr, ptr %25, align 8
  %27 = getelementptr inbounds nuw i8, ptr %2, i64 20
  %28 = load i32, ptr %27, align 4
  %29 = call ptr @wmem_tree_lookup32_le(ptr noundef %26, i32 noundef %28)
  %.not.i26 = icmp eq ptr %29, null
  br i1 %.not.i26, label %30, label %get_itl_nexus.exit

30:                                               ; preds = %23
  %31 = call ptr @wmem_file_scope()
  %32 = call noalias dereferenceable_or_null(16) ptr @wmem_alloc(ptr noundef %31, i64 noundef 16) #8
  store i8 -1, ptr %32, align 8
  %33 = load ptr, ptr @ndmp_conv_data, align 8
  %34 = getelementptr inbounds nuw i8, ptr %33, i64 48
  %35 = load ptr, ptr %34, align 8
  %36 = getelementptr inbounds nuw i8, ptr %32, i64 8
  store ptr %35, ptr %36, align 8
  %37 = getelementptr inbounds nuw i8, ptr %33, i64 16
  %38 = load ptr, ptr %37, align 8
  %39 = load i32, ptr %27, align 4
  call void @wmem_tree_insert32(ptr noundef %38, i32 noundef %39, ptr noundef %32)
  br label %get_itl_nexus.exit

get_itl_nexus.exit:                               ; preds = %23, %30
  %.0.i = phi ptr [ %32, %30 ], [ %29, %23 ]
  %40 = load i32, ptr %6, align 4
  %41 = trunc i32 %40 to i8
  call void @dissect_scsi_rsp(ptr noundef %0, ptr noundef %2, ptr noundef %24, ptr noundef nonnull %22, ptr noundef %.0.i, i8 noundef zeroext %41)
  br label %42

42:                                               ; preds = %get_itl_nexus.exit, %20, %dissect_error.exit
  %43 = add i32 %1, 8
  %44 = load i32, ptr @hf_ndmp_execute_cdb_dataout_len, align 4
  %45 = call ptr @proto_tree_add_item(ptr noundef %3, i32 noundef %44, ptr noundef %0, i32 noundef %43, i32 noundef 4, i32 noundef 0)
  %46 = add i32 %1, 12
  %47 = load i32, ptr @hf_ndmp_execute_cdb_datain_len, align 4
  %48 = call fastcc i32 @dissect_execute_cdb_payload(ptr noundef %0, i32 noundef %46, ptr noundef %2, ptr noundef %3, ptr noundef nonnull @.str.754, i32 noundef %47, i1 noundef zeroext false)
  %49 = call i32 @tvb_get_ntohl(ptr noundef %0, i32 noundef %48)
  %50 = call i32 @rpc_roundup(i32 noundef %49)
  %51 = add i32 %50, 4
  %52 = load i32, ptr @ett_ndmp_execute_cdb_sns, align 4
  %53 = call ptr @proto_tree_add_subtree(ptr noundef %3, ptr noundef %0, i32 noundef %48, i32 noundef %51, i32 noundef %52, ptr noundef null, ptr noundef nonnull @.str.755)
  %54 = load i32, ptr @hf_ndmp_execute_cdb_sns_len, align 4
  %55 = call ptr @proto_tree_add_uint(ptr noundef %53, i32 noundef %54, ptr noundef %0, i32 noundef %48, i32 noundef 4, i32 noundef %49)
  %56 = add i32 %48, 4
  %.not.i27 = icmp eq i32 %49, 0
  br i1 %.not.i27, label %dissect_execute_cdb_sns.exit, label %57

57:                                               ; preds = %42
  %58 = load ptr, ptr @ndmp_conv_data, align 8
  %59 = getelementptr inbounds nuw i8, ptr %58, i64 40
  %60 = load ptr, ptr %59, align 8
  %.not23.i = icmp eq ptr %60, null
  br i1 %.not23.i, label %81, label %61

61:                                               ; preds = %57
  %62 = getelementptr inbounds nuw i8, ptr %60, i64 24
  %63 = load ptr, ptr %62, align 8
  %.not24.i = icmp eq ptr %63, null
  br i1 %.not24.i, label %81, label %64

64:                                               ; preds = %61
  %65 = load ptr, ptr @top_tree, align 8
  %66 = getelementptr inbounds nuw i8, ptr %58, i64 16
  %67 = load ptr, ptr %66, align 8
  %68 = getelementptr inbounds nuw i8, ptr %2, i64 20
  %69 = load i32, ptr %68, align 4
  %70 = call ptr @wmem_tree_lookup32_le(ptr noundef %67, i32 noundef %69)
  %.not.i.i = icmp eq ptr %70, null
  br i1 %.not.i.i, label %71, label %get_itl_nexus.exit.i

71:                                               ; preds = %64
  %72 = call ptr @wmem_file_scope()
  %73 = call noalias dereferenceable_or_null(16) ptr @wmem_alloc(ptr noundef %72, i64 noundef 16) #8
  store i8 -1, ptr %73, align 8
  %74 = load ptr, ptr @ndmp_conv_data, align 8
  %75 = getelementptr inbounds nuw i8, ptr %74, i64 48
  %76 = load ptr, ptr %75, align 8
  %77 = getelementptr inbounds nuw i8, ptr %73, i64 8
  store ptr %76, ptr %77, align 8
  %78 = getelementptr inbounds nuw i8, ptr %74, i64 16
  %79 = load ptr, ptr %78, align 8
  %80 = load i32, ptr %68, align 4
  call void @wmem_tree_insert32(ptr noundef %79, i32 noundef %80, ptr noundef %73)
  br label %get_itl_nexus.exit.i

get_itl_nexus.exit.i:                             ; preds = %71, %64
  %.0.i.i = phi ptr [ %73, %71 ], [ %70, %64 ]
  call void @dissect_scsi_snsinfo(ptr noundef %0, ptr noundef %2, ptr noundef %65, i32 noundef %56, i32 noundef %49, ptr noundef nonnull %63, ptr noundef %.0.i.i)
  br label %81

81:                                               ; preds = %get_itl_nexus.exit.i, %61, %57
  %82 = add i32 %50, %56
  br label %dissect_execute_cdb_sns.exit

dissect_execute_cdb_sns.exit:                     ; preds = %42, %81
  %.0.i28 = phi i32 [ %82, %81 ], [ %56, %42 ]
  call void @llvm.lifetime.end.p0(i64 4, ptr nonnull %6) #10
  ret i32 %.0.i28
}